target datalayout = "e-m:e-p270:32:32-p271:32:32-p272:64:64-i64:64-i128:128-f80:128-n8:16:32:64-S128"
target triple = "x86_64-pc-linux-gnu"

%struct.ibf_load = type { ptr, i64, %struct.ibf_load_buffer, i64, ptr, i64, ptr }
%struct.ibf_load_buffer = type { ptr, i32, i64, i32, i32 }

@rb_eRuntimeError = external global i64, align 8
@.str.234 = private unnamed_addr constant [22 x i8] c"invalid byte sequence\00", align 1

; Function Attrs: inlinehint nounwind sspstrong uwtable
define internal i32 @ntz_int32(i32 noundef %0) #3 {
  %2 = alloca i32, align 4
  store i32 %0, ptr %2, align 4, !tbaa !41
  %3 = load i32, ptr %2, align 4, !tbaa !41
  %4 = icmp ne i32 %3, 0
  br i1 %4, label %5, label %8

5:                                                ; preds = %1
  %6 = load i32, ptr %2, align 4, !tbaa !41
  %7 = call i32 @llvm.cttz.i32(i32 %6, i1 true)
  br label %9

8:                                                ; preds = %1
  br label %9

9:                                                ; preds = %8, %5
  %10 = phi i32 [ %7, %5 ], [ 32, %8 ]
  ret i32 %10
}

; Function Attrs: nounwind sspstrong uwtable
define internal i64 @ibf_load_small_value(ptr noundef %0, ptr noundef %1) #0 {
  %3 = alloca ptr, align 8
  %4 = alloca ptr, align 8
  %5 = alloca ptr, align 8
  %6 = alloca i8, align 1
  %7 = alloca i32, align 4
  %8 = alloca i64, align 8
  %9 = alloca i32, align 4
  store ptr %0, ptr %3, align 8, !tbaa !253
  store ptr %1, ptr %4, align 8, !tbaa !186
  call void @llvm.lifetime.start.p0(i64 8, ptr %5) #31
  %10 = load ptr, ptr %3, align 8, !tbaa !253
  %11 = getelementptr inbounds nuw %struct.ibf_load, ptr %10, i32 0, i32 6
  %12 = load ptr, ptr %11, align 8, !tbaa !288
  %13 = getelementptr inbounds nuw %struct.ibf_load_buffer, ptr %12, i32 0, i32 0
  %14 = load ptr, ptr %13, align 8, !tbaa !1347
  store ptr %14, ptr %5, align 8, !tbaa !91
  call void @llvm.lifetime.start.p0(i64 1, ptr %6) #31
  %15 = load ptr, ptr %5, align 8, !tbaa !91
  %16 = load ptr, ptr %4, align 8, !tbaa !186
  %17 = load i32, ptr %16, align 4, !tbaa !41
  %18 = zext i32 %17 to i64
  %19 = getelementptr i8, ptr %15, i64 %18
  %20 = load i8, ptr %19, align 1, !tbaa !49
  store i8 %20, ptr %6, align 1, !tbaa !49
  call void @llvm.lifetime.start.p0(i64 4, ptr %7) #31
  %21 = load i8, ptr %6, align 1, !tbaa !49
  %22 = zext i8 %21 to i32
  %23 = and i32 %22, 1
  %24 = icmp ne i32 %23, 0
  br i1 %24, label %25, label %26

25:                                               ; preds = %2
  br label %38

26:                                               ; preds = %2
  %27 = load i8, ptr %6, align 1, !tbaa !49
  %28 = zext i8 %27 to i32
  %29 = icmp eq i32 %28, 0
  br i1 %29, label %30, label %31

30:                                               ; preds = %26
  br label %36

31:                                               ; preds = %26
  %32 = load i8, ptr %6, align 1, !tbaa !49
  %33 = zext i8 %32 to i32
  %34 = call i32 @ntz_int32(i32 noundef %33)
  %35 = add i32 %34, 1
  br label %36

36:                                               ; preds = %31, %30
  %37 = phi i32 [ 9, %30 ], [ %35, %31 ]
  br label %38

38:                                               ; preds = %36, %25
  %39 = phi i32 [ 1, %25 ], [ %37, %36 ]
  store i32 %39, ptr %7, align 4, !tbaa !41
  call void @llvm.lifetime.start.p0(i64 8, ptr %8) #31
  %40 = load i8, ptr %6, align 1, !tbaa !49
  %41 = zext i8 %40 to i64
  %42 = load i32, ptr %7, align 4, !tbaa !41
  %43 = zext i32 %42 to i64
  %44 = lshr i64 %41, %43
  store i64 %44, ptr %8, align 8, !tbaa !7
  %45 = load ptr, ptr %4, align 8, !tbaa !186
  %46 = load i32, ptr %45, align 4, !tbaa !41
  %47 = load i32, ptr %7, align 4, !tbaa !41
  %48 = add i32 %46, %47
  %49 = load ptr, ptr %3, align 8, !tbaa !253
  %50 = getelementptr inbounds nuw %struct.ibf_load, ptr %49, i32 0, i32 6
  %51 = load ptr, ptr %50, align 8, !tbaa !288
  %52 = getelementptr inbounds nuw %struct.ibf_load_buffer, ptr %51, i32 0, i32 1
  %53 = load i32, ptr %52, align 8, !tbaa !1348
  %54 = icmp ugt i32 %48, %53
  br i1 %54, label %55, label %57

55:                                               ; preds = %38
  %56 = load i64, ptr @rb_eRuntimeError, align 8, !tbaa !7
  call void (i64, ptr, ...) @rb_raise(i64 noundef %56, ptr noundef @.str.234) #36
  unreachable

57:                                               ; preds = %38
  call void @llvm.lifetime.start.p0(i64 4, ptr %9) #31
  store i32 1, ptr %9, align 4, !tbaa !41
  br label %58

58:                                               ; preds = %76, %57
  %59 = load i32, ptr %9, align 4, !tbaa !41
  %60 = load i32, ptr %7, align 4, !tbaa !41
  %61 = icmp ult i32 %59, %60
  br i1 %61, label %62, label %79

62:                                               ; preds = %58
  %63 = load i64, ptr %8, align 8, !tbaa !7
  %64 = shl i64 %63, 8
  store i64 %64, ptr %8, align 8, !tbaa !7
  %65 = load ptr, ptr %5, align 8, !tbaa !91
  %66 = load ptr, ptr %4, align 8, !tbaa !186
  %67 = load i32, ptr %66, align 4, !tbaa !41
  %68 = load i32, ptr %9, align 4, !tbaa !41
  %69 = add i32 %67, %68
  %70 = zext i32 %69 to i64
  %71 = getelementptr i8, ptr %65, i64 %70
  %72 = load i8, ptr %71, align 1, !tbaa !49
  %73 = zext i8 %72 to i64
  %74 = load i64, ptr %8, align 8, !tbaa !7
  %75 = or i64 %74, %73
  store i64 %75, ptr %8, align 8, !tbaa !7
  br label %76

76:                                               ; preds = %62
  %77 = load i32, ptr %9, align 4, !tbaa !41
  %78 = add i32 %77, 1
  store i32 %78, ptr %9, align 4, !tbaa !41
  br label %58, !llvm.loop !1349

79:                                               ; preds = %58
  %80 = load i32, ptr %7, align 4, !tbaa !41
  %81 = load ptr, ptr %4, align 8, !tbaa !186
  %82 = load i32, ptr %81, align 4, !tbaa !41
  %83 = add i32 %82, %80
  store i32 %83, ptr %81, align 4, !tbaa !41
  %84 = load i64, ptr %8, align 8, !tbaa !7
  call void @llvm.lifetime.end.p0(i64 4, ptr %9) #31
  call void @llvm.lifetime.end.p0(i64 8, ptr %8) #31
  call void @llvm.lifetime.end.p0(i64 4, ptr %7) #31
  call void @llvm.lifetime.end.p0(i64 1, ptr %6) #31
  call void @llvm.lifetime.end.p0(i64 8, ptr %5) #31
  ret i64 %84
}

; Function Attrs: nounwind sspstrong uwtable
define internal i64 @ibf_load_object_array(ptr noundef %0, ptr noundef %1, i32 noundef %2) #0 {
  %4 = alloca ptr, align 8
  %5 = alloca ptr, align 8
  %6 = alloca i32, align 4
  %7 = alloca i32, align 4
  %8 = alloca i64, align 8
  %9 = alloca i64, align 8
  %10 = alloca i32, align 4
  %11 = alloca i64, align 8
  store ptr %0, ptr %4, align 8, !tbaa !253
  store ptr %1, ptr %5, align 8, !tbaa !1369
  store i32 %2, ptr %6, align 4, !tbaa !41
  call void @llvm.lifetime.start.p0(i64 4, ptr %7) #31
  %12 = load i32, ptr %6, align 4, !tbaa !41
  store i32 %12, ptr %7, align 4, !tbaa !41
  call void @llvm.lifetime.start.p0(i64 8, ptr %8) #31
  %13 = load ptr, ptr %4, align 8, !tbaa !253
  %14 = call i64 @ibf_load_small_value(ptr noundef %13, ptr noundef %7)
  store i64 %14, ptr %8, align 8, !tbaa !7
  call void @llvm.lifetime.start.p0(i64 8, ptr %9) #31
  %15 = load ptr, ptr %5, align 8, !tbaa !1369
  %16 = load i8, ptr %15, align 4
  %17 = lshr i8 %16, 7
  %18 = zext i8 %17 to i32
  %19 = icmp ne i32 %18, 0
  br i1 %19, label %20, label %23

20:                                               ; preds = %3
  %21 = load i64, ptr %8, align 8, !tbaa !7
  %22 = call i64 @rb_ary_hidden_new(i64 noundef %21)
  br label %26

23:                                               ; preds = %3
  %24 = load i64, ptr %8, align 8, !tbaa !7
  %25 = call i64 @rb_ary_new_capa(i64 noundef %24)
  br label %26

26:                                               ; preds = %23, %20
  %27 = phi i64 [ %22, %20 ], [ %25, %23 ]
  store i64 %27, ptr %9, align 8, !tbaa !7
  call void @llvm.lifetime.start.p0(i64 4, ptr %10) #31
  store i32 0, ptr %10, align 4, !tbaa !41
  br label %28

28:                                               ; preds = %41, %26
  %29 = load i32, ptr %10, align 4, !tbaa !41
  %30 = sext i32 %29 to i64
  %31 = load i64, ptr %8, align 8, !tbaa !7
  %32 = icmp slt i64 %30, %31
  br i1 %32, label %33, label %44

33:                                               ; preds = %28
  call void @llvm.lifetime.start.p0(i64 8, ptr %11) #31
  %34 = load ptr, ptr %4, align 8, !tbaa !253
  %35 = call i64 @ibf_load_small_value(ptr noundef %34, ptr noundef %7)
  store i64 %35, ptr %11, align 8, !tbaa !7
  %36 = load i64, ptr %9, align 8, !tbaa !7
  %37 = load ptr, ptr %4, align 8, !tbaa !253
  %38 = load i64, ptr %11, align 8, !tbaa !7
  %39 = call i64 @ibf_load_object(ptr noundef %37, i64 noundef %38)
  %40 = call i64 @rb_ary_push(i64 noundef %36, i64 noundef %39)
  call void @llvm.lifetime.end.p0(i64 8, ptr %11) #31
  br label %41

41:                                               ; preds = %33
  %42 = load i32, ptr %10, align 4, !tbaa !41
  %43 = add i32 %42, 1
  store i32 %43, ptr %10, align 4, !tbaa !41
  br label %28, !llvm.loop !1373

44:                                               ; preds = %28
  %45 = load ptr, ptr %5, align 8, !tbaa !1369
  %46 = load i8, ptr %45, align 4
  %47 = lshr i8 %46, 6
  %48 = and i8 %47, 1
  %49 = zext i8 %48 to i32
  %50 = icmp ne i32 %49, 0
  br i1 %50, label %51, label %54

51:                                               ; preds = %44
  %52 = load i64, ptr %9, align 8, !tbaa !7
  %53 = call i64 @rb_ary_freeze(i64 noundef %52)
  br label %54

54:                                               ; preds = %51, %44
  %55 = load i64, ptr %9, align 8, !tbaa !7
  call void @llvm.lifetime.end.p0(i64 4, ptr %10) #31
  call void @llvm.lifetime.end.p0(i64 8, ptr %9) #31
  call void @llvm.lifetime.end.p0(i64 8, ptr %8) #31
  call void @llvm.lifetime.end.p0(i64 4, ptr %7) #31
  ret i64 %55
}