; Function Attrs: nounwind sspstrong uwtable
define internal i64 @ibf_load_object_array(ptr noundef %0, ptr noundef readonly captures(none) %1, i32 noundef %2) #1 {
  %4 = getelementptr i8, ptr %0, i64 72
  %.val15 = load ptr, ptr %4, align 8, !tbaa !344
  %5 = load ptr, ptr %.val15, align 8, !tbaa !345
  %6 = zext i32 %2 to i64
  %7 = getelementptr i8, ptr %5, i64 %6
  %8 = load i8, ptr %7, align 1, !tbaa !22
  %9 = zext i8 %8 to i32
  %10 = and i32 %9, 1
  %.not.i = icmp eq i32 %10, 0
  br i1 %.not.i, label %11, label %.thread.i

11:                                               ; preds = %3
  %12 = icmp eq i8 %8, 0
  %13 = tail call range(i32 0, 8) i32 @llvm.cttz.i32(i32 range(i32 1, 256) %9, i1 true)
  %14 = add nuw nsw i32 %13, 1
  %15 = select i1 %12, i32 9, i32 %14
  %16 = add i32 %15, %2
  %17 = getelementptr inbounds nuw i8, ptr %.val15, i64 8
  %18 = load i32, ptr %17, align 8, !tbaa !346
  %19 = icmp ugt i32 %16, %18
  br i1 %19, label %26, label %28

.thread.i:                                        ; preds = %3
  %20 = add i32 %2, 1
  %21 = getelementptr inbounds nuw i8, ptr %.val15, i64 8
  %22 = load i32, ptr %21, align 8, !tbaa !346
  %23 = icmp ugt i32 %20, %22
  br i1 %23, label %26, label %.thread4.i

.thread4.i:                                       ; preds = %.thread.i
  %24 = lshr i8 %8, 1
  %25 = zext nneg i8 %24 to i64
  br label %ibf_load_small_value.exit

26:                                               ; preds = %.thread.i, %11
  %27 = load i64, ptr @rb_eRuntimeError, align 8, !tbaa !37
  tail call void (i64, ptr, ...) @rb_raise(i64 noundef %27, ptr noundef nonnull @.str.234) #42
  unreachable

28:                                               ; preds = %11
  %29 = zext i8 %8 to i64
  %30 = zext nneg i32 %15 to i64
  %31 = lshr i64 %29, %30
  br label %.lr.ph.i

.lr.ph.i:                                         ; preds = %.lr.ph.i, %28
  %indvars.iv.i = phi i64 [ %indvars.iv.next.i, %.lr.ph.i ], [ 1, %28 ]
  %.0211.i = phi i64 [ %39, %.lr.ph.i ], [ %31, %28 ]
  %32 = shl i64 %.0211.i, 8
  %33 = trunc nuw nsw i64 %indvars.iv.i to i32
  %34 = add i32 %2, %33
  %35 = zext i32 %34 to i64
  %36 = getelementptr i8, ptr %5, i64 %35
  %37 = load i8, ptr %36, align 1, !tbaa !22
  %38 = zext i8 %37 to i64
  %39 = or disjoint i64 %32, %38
  %indvars.iv.next.i = add nuw nsw i64 %indvars.iv.i, 1
  %exitcond.not.i = icmp eq i64 %indvars.iv.next.i, %30
  br i1 %exitcond.not.i, label %ibf_load_small_value.exit, label %.lr.ph.i, !llvm.loop !347

ibf_load_small_value.exit:                        ; preds = %.lr.ph.i, %.thread4.i
  %40 = phi i32 [ %20, %.thread4.i ], [ %16, %.lr.ph.i ]
  %.021.lcssa.i = phi i64 [ %25, %.thread4.i ], [ %39, %.lr.ph.i ]
  %41 = load i8, ptr %1, align 4
  %.not = icmp sgt i8 %41, -1
  br i1 %.not, label %44, label %42

42:                                               ; preds = %ibf_load_small_value.exit
  %43 = tail call i64 @rb_ary_hidden_new(i64 noundef %.021.lcssa.i) #38
  br label %46

44:                                               ; preds = %ibf_load_small_value.exit
  %45 = tail call i64 @rb_ary_new_capa(i64 noundef %.021.lcssa.i) #38
  br label %46

46:                                               ; preds = %44, %42
  %47 = phi i64 [ %43, %42 ], [ %45, %44 ]
  %48 = icmp sgt i64 %.021.lcssa.i, 0
  br i1 %48, label %.lr.ph, label %._crit_edge

.lr.ph:                                           ; preds = %46, %ibf_load_small_value.exit25
  %.030 = phi i32 [ %87, %ibf_load_small_value.exit25 ], [ 0, %46 ]
  %.02729 = phi i32 [ %84, %ibf_load_small_value.exit25 ], [ %40, %46 ]
  %.val = load ptr, ptr %4, align 8, !tbaa !344
  %49 = load ptr, ptr %.val, align 8, !tbaa !345
  %50 = zext i32 %.02729 to i64
  %51 = getelementptr i8, ptr %49, i64 %50
  %52 = load i8, ptr %51, align 1, !tbaa !22
  %53 = zext i8 %52 to i32
  %54 = and i32 %53, 1
  %.not.i16 = icmp eq i32 %54, 0
  br i1 %.not.i16, label %55, label %.thread.i17

55:                                               ; preds = %.lr.ph
  %56 = icmp eq i8 %52, 0
  %57 = tail call range(i32 0, 8) i32 @llvm.cttz.i32(i32 range(i32 1, 256) %53, i1 true)
  %58 = add nuw nsw i32 %57, 1
  %59 = select i1 %56, i32 9, i32 %58
  %60 = add i32 %59, %.02729
  %61 = getelementptr inbounds nuw i8, ptr %.val, i64 8
  %62 = load i32, ptr %61, align 8, !tbaa !346
  %63 = icmp ugt i32 %60, %62
  br i1 %63, label %70, label %72

.thread.i17:                                      ; preds = %.lr.ph
  %64 = add i32 %.02729, 1
  %65 = getelementptr inbounds nuw i8, ptr %.val, i64 8
  %66 = load i32, ptr %65, align 8, !tbaa !346
  %67 = icmp ugt i32 %64, %66
  br i1 %67, label %70, label %.thread4.i18

.thread4.i18:                                     ; preds = %.thread.i17
  %68 = lshr i8 %52, 1
  %69 = zext nneg i8 %68 to i64
  br label %ibf_load_small_value.exit25

70:                                               ; preds = %.thread.i17, %55
  %71 = load i64, ptr @rb_eRuntimeError, align 8, !tbaa !37
  tail call void (i64, ptr, ...) @rb_raise(i64 noundef %71, ptr noundef nonnull @.str.234) #42
  unreachable

72:                                               ; preds = %55
  %73 = zext i8 %52 to i64
  %74 = zext nneg i32 %59 to i64
  %75 = lshr i64 %73, %74
  br label %.lr.ph.i20

.lr.ph.i20:                                       ; preds = %.lr.ph.i20, %72
  %indvars.iv.i21 = phi i64 [ %indvars.iv.next.i23, %.lr.ph.i20 ], [ 1, %72 ]
  %.0211.i22 = phi i64 [ %83, %.lr.ph.i20 ], [ %75, %72 ]
  %76 = shl i64 %.0211.i22, 8
  %77 = trunc nuw nsw i64 %indvars.iv.i21 to i32
  %78 = add i32 %.02729, %77
  %79 = zext i32 %78 to i64
  %80 = getelementptr i8, ptr %49, i64 %79
  %81 = load i8, ptr %80, align 1, !tbaa !22
  %82 = zext i8 %81 to i64
  %83 = or disjoint i64 %76, %82
  %indvars.iv.next.i23 = add nuw nsw i64 %indvars.iv.i21, 1
  %exitcond.not.i24 = icmp eq i64 %indvars.iv.next.i23, %74
  br i1 %exitcond.not.i24, label %ibf_load_small_value.exit25, label %.lr.ph.i20, !llvm.loop !347

ibf_load_small_value.exit25:                      ; preds = %.lr.ph.i20, %.thread4.i18
  %84 = phi i32 [ %64, %.thread4.i18 ], [ %60, %.lr.ph.i20 ]
  %.021.lcssa.i19 = phi i64 [ %69, %.thread4.i18 ], [ %83, %.lr.ph.i20 ]
  %85 = tail call fastcc i64 @ibf_load_object(ptr noundef %0, i64 noundef %.021.lcssa.i19)
  %86 = tail call i64 @rb_ary_push(i64 noundef %47, i64 noundef %85) #38
  %87 = add i32 %.030, 1
  %88 = sext i32 %87 to i64
  %89 = icmp sgt i64 %.021.lcssa.i, %88
  br i1 %89, label %.lr.ph, label %._crit_edge, !llvm.loop !1134

._crit_edge:                                      ; preds = %ibf_load_small_value.exit25, %46
  %90 = load i8, ptr %1, align 4
  %91 = and i8 %90, 64
  %.not14 = icmp eq i8 %91, 0
  br i1 %.not14, label %94, label %92

92:                                               ; preds = %._crit_edge
  %93 = tail call i64 @rb_ary_freeze(i64 noundef %47) #38
  br label %94

94:                                               ; preds = %92, %._crit_edge
  ret i64 %47
}